target datalayout = "e-m:e-p270:32:32-p271:32:32-p272:64:64-i64:64-i128:128-f80:128-n8:16:32:64-S128"
target triple = "x86_64-pc-linux-gnu"

%"class.icu_77::Package" = type <{ [64 x i8], [64 x i8], ptr, [1024 x i8], i32, i32, i8, i8, i8, i8, i32, i32, [4 x i8], ptr, i32, i32, [100000 x i8], [100000 x i8], i32, [4 x i8], ptr, ptr, i32, i32, i32, i8, [3 x i8] }>

@_ZL5types = internal global ptr @.str.47, align 8

; Function Attrs: inlinehint mustprogress nounwind uwtable
define internal noundef i32 @_ZL12makeTypeEnumha(i8 noundef zeroext %0, i8 noundef signext %1) #2 {
  %3 = alloca i8, align 1
  %4 = alloca i8, align 1
  store i8 %0, ptr %3, align 1, !tbaa !32
  store i8 %1, ptr %4, align 1, !tbaa !32
  %5 = load i8, ptr %3, align 1, !tbaa !32
  %6 = zext i8 %5 to i32
  %7 = mul nsw i32 2, %6
  %8 = load i8, ptr %4, align 1, !tbaa !32
  %9 = sext i8 %8 to i32
  %10 = add nsw i32 %7, %9
  ret i32 %10
}

; Function Attrs: inlinehint mustprogress uwtable
define internal noundef signext i8 @_ZL14makeTypeLetterha(i8 noundef zeroext %0, i8 noundef signext %1) #11 {
  %3 = alloca i8, align 1
  %4 = alloca i8, align 1
  store i8 %0, ptr %3, align 1, !tbaa !32
  store i8 %1, ptr %4, align 1, !tbaa !32
  %5 = load ptr, ptr @_ZL5types, align 8, !tbaa !3
  %6 = load i8, ptr %3, align 1, !tbaa !32
  %7 = load i8, ptr %4, align 1, !tbaa !32
  %8 = call noundef i32 @_ZL12makeTypeEnumha(i8 noundef zeroext %6, i8 noundef signext %7)
  %9 = sext i32 %8 to i64
  %10 = getelementptr inbounds i8, ptr %5, i64 %9
  %11 = load i8, ptr %10, align 1, !tbaa !32
  ret i8 %11
}

; Function Attrs: mustprogress uwtable
define noundef signext i8 @_ZN6icu_777Package9getInTypeEv(ptr noundef nonnull align 8 dereferenceable(201237) %0) #0 align 2 {
  %2 = alloca ptr, align 8
  store ptr %0, ptr %2, align 8, !tbaa !26
  %3 = load ptr, ptr %2, align 8
  %4 = getelementptr inbounds nuw %"class.icu_77::Package", ptr %3, i32 0, i32 6
  %5 = load i8, ptr %4, align 8, !tbaa !35
  %6 = getelementptr inbounds nuw %"class.icu_77::Package", ptr %3, i32 0, i32 7
  %7 = load i8, ptr %6, align 1, !tbaa !36
  %8 = call noundef signext i8 @_ZL14makeTypeLetterha(i8 noundef zeroext %5, i8 noundef signext %7)
  ret i8 %8
}