; Function Attrs: mustprogress nofree norecurse nosync nounwind willreturn memory(argmem: read) uwtable
define noundef signext i8 @_ZN6icu_777Package9getInTypeEv(ptr noundef nonnull readonly align 8 captures(none) dereferenceable(201237) %0) local_unnamed_addr #14 align 2 {
  %2 = getelementptr inbounds nuw i8, ptr %0, i64 1168
  %3 = load i8, ptr %2, align 8, !tbaa !43
  %4 = getelementptr inbounds nuw i8, ptr %0, i64 1169
  %5 = load i8, ptr %4, align 1, !tbaa !41
  %6 = zext i8 %3 to i32
  %7 = shl nuw nsw i32 %6, 1
  %8 = sext i8 %5 to i32
  %9 = add nsw i32 %7, %8
  %10 = sext i32 %9 to i64
  %11 = getelementptr inbounds i8, ptr @.str.47, i64 %10
  %12 = load i8, ptr %11, align 1, !tbaa !19
  ret i8 %12
}